; Function Attrs: mustprogress uwtable
define internal fastcc void @_ZN4leanL15get_first_cnstrERKNS_11environmentERKNS_4nameE(ptr dead_on_unwind noalias nonnull writable writeonly align 8 captures(none) initializes((0, 1)) %0, ptr noundef nonnull align 8 dereferenceable(8) %1, ptr noundef nonnull align 8 dereferenceable(8) %2) unnamed_addr #0 personality ptr @__gxx_personality_v0 {
  %4 = alloca %"class.lean::constant_info", align 8
  call void @llvm.lifetime.start.p0(i64 8, ptr nonnull %4) #16
  call void @_ZNK4lean11environment3getERKNS_4nameE(ptr dead_on_unwind nonnull writable sret(%"class.lean::constant_info") align 8 %4, ptr noundef nonnull align 8 dereferenceable(8) %1, ptr noundef nonnull align 8 dereferenceable(8) %2)
  %5 = load ptr, ptr %4, align 8, !tbaa !3
  %6 = getelementptr i8, ptr %5, i64 4
  %.val.i.i.i = load i32, ptr %6, align 4
  %.mask.i = and i32 %.val.i.i.i, -16777216
  %7 = icmp eq i32 %.mask.i, 83886080
  br i1 %7, label %9, label %8

8:                                                ; preds = %3
  store i8 0, ptr %0, align 8, !tbaa !20
  br label %_ZN4lean8optionalINS_4nameEEC2ERKS1_.exit

9:                                                ; preds = %3
  %10 = getelementptr inbounds nuw i8, ptr %5, i64 8
  %11 = load ptr, ptr %10, align 8, !tbaa !3
  %12 = getelementptr inbounds nuw i8, ptr %11, i64 40
  %13 = load ptr, ptr %12, align 8, !tbaa !3
  %14 = ptrtoint ptr %13 to i64
  %15 = and i64 %14, 1
  %.not = icmp eq i64 %15, 0
  br i1 %.not, label %19, label %16

16:                                               ; preds = %9
  store i8 0, ptr %0, align 8, !tbaa !20
  br label %_ZN4lean8optionalINS_4nameEEC2ERKS1_.exit

17:                                               ; preds = %30
  %18 = landingpad { ptr, i32 }
          cleanup
  call void @_ZN4lean10object_refD2Ev(ptr noundef nonnull align 8 dereferenceable(8) %4) #16
  call void @llvm.lifetime.end.p0(i64 8, ptr nonnull %4) #16
  resume { ptr, i32 } %18

19:                                               ; preds = %9
  %20 = getelementptr inbounds nuw i8, ptr %13, i64 8
  store i8 1, ptr %0, align 8, !tbaa !20
  %21 = getelementptr inbounds nuw i8, ptr %0, i64 8
  %22 = load ptr, ptr %20, align 8, !tbaa !3
  store ptr %22, ptr %21, align 8, !tbaa !3
  %23 = ptrtoint ptr %22 to i64
  %24 = and i64 %23, 1
  %.not.i.i.i.i = icmp eq i64 %24, 0
  br i1 %.not.i.i.i.i, label %25, label %_ZN4lean8optionalINS_4nameEEC2ERKS1_.exit

25:                                               ; preds = %19
  %.val.i.i.i.i.i = load i32, ptr %22, align 4, !tbaa !8
  %26 = icmp sgt i32 %.val.i.i.i.i.i, 0
  br i1 %26, label %27, label %29, !prof !11

27:                                               ; preds = %25
  %28 = add nuw nsw i32 %.val.i.i.i.i.i, 1
  store i32 %28, ptr %22, align 4, !tbaa !8
  br label %_ZN4lean8optionalINS_4nameEEC2ERKS1_.exit

29:                                               ; preds = %25
  %.not.i.i.i.i.i = icmp eq i32 %.val.i.i.i.i.i, 0
  br i1 %.not.i.i.i.i.i, label %_ZN4lean8optionalINS_4nameEEC2ERKS1_.exit, label %30

30:                                               ; preds = %29
  invoke void @lean_inc_ref_cold(ptr noundef nonnull %22)
          to label %._ZN4lean8optionalINS_4nameEEC2ERKS1_.exit_crit_edge unwind label %17

._ZN4lean8optionalINS_4nameEEC2ERKS1_.exit_crit_edge: ; preds = %30
  %.pre = load ptr, ptr %4, align 8, !tbaa !3
  br label %_ZN4lean8optionalINS_4nameEEC2ERKS1_.exit

_ZN4lean8optionalINS_4nameEEC2ERKS1_.exit:        ; preds = %._ZN4lean8optionalINS_4nameEEC2ERKS1_.exit_crit_edge, %29, %27, %19, %16, %8
  %31 = phi ptr [ %.pre, %._ZN4lean8optionalINS_4nameEEC2ERKS1_.exit_crit_edge ], [ %5, %29 ], [ %5, %27 ], [ %5, %19 ], [ %5, %16 ], [ %5, %8 ]
  %32 = ptrtoint ptr %31 to i64
  %33 = and i64 %32, 1
  %.not.i.i = icmp eq i64 %33, 0
  br i1 %.not.i.i, label %34, label %_ZN4lean10object_refD2Ev.exit

34:                                               ; preds = %_ZN4lean8optionalINS_4nameEEC2ERKS1_.exit
  %35 = load i32, ptr %31, align 4, !tbaa !8
  %36 = icmp sgt i32 %35, 1
  br i1 %36, label %37, label %39, !prof !11

37:                                               ; preds = %34
  %38 = add nsw i32 %35, -1
  store i32 %38, ptr %31, align 4, !tbaa !8
  br label %_ZN4lean10object_refD2Ev.exit

39:                                               ; preds = %34
  %.not.i.i.i = icmp eq i32 %35, 0
  br i1 %.not.i.i.i, label %_ZN4lean10object_refD2Ev.exit, label %40

40:                                               ; preds = %39
  invoke void @lean_dec_ref_cold(ptr noundef nonnull %31)
          to label %_ZN4lean10object_refD2Ev.exit unwind label %41

41:                                               ; preds = %40
  %42 = landingpad { ptr, i32 }
          catch ptr null
  %43 = extractvalue { ptr, i32 } %42, 0
  call void @__clang_call_terminate(ptr %43) #17
  unreachable

_ZN4lean10object_refD2Ev.exit:                    ; preds = %_ZN4lean8optionalINS_4nameEEC2ERKS1_.exit, %37, %39, %40
  call void @llvm.lifetime.end.p0(i64 8, ptr nonnull %4) #16
  ret void
}